target datalayout = "e-m:e-p270:32:32-p271:32:32-p272:64:64-i64:64-i128:128-f80:128-n8:16:32:64-S128"
target triple = "x86_64-pc-linux-gnu"

@utf8_decode.limits = internal constant [6 x i32] [i32 -1, i32 128, i32 2048, i32 65536, i32 2097152, i32 67108864], align 16
@.str.14 = private unnamed_addr constant [31 x i8] c"initial position out of bounds\00", align 1
@.str.15 = private unnamed_addr constant [29 x i8] c"final position out of bounds\00", align 1

; Function Attrs: nounwind uwtable
define internal ptr @utf8_decode(ptr noundef %0, ptr noundef %1, i32 noundef %2) #0 {
  %4 = alloca ptr, align 8
  %5 = alloca ptr, align 8
  %6 = alloca ptr, align 8
  %7 = alloca i32, align 4
  %8 = alloca i32, align 4
  %9 = alloca i32, align 4
  %10 = alloca i32, align 4
  %11 = alloca i32, align 4
  %12 = alloca i32, align 4
  store ptr %0, ptr %5, align 8, !tbaa !9
  store ptr %1, ptr %6, align 8, !tbaa !18
  store i32 %2, ptr %7, align 4, !tbaa !16
  call void @llvm.lifetime.start.p0(i64 4, ptr %8) #4
  %13 = load ptr, ptr %5, align 8, !tbaa !9
  %14 = getelementptr inbounds i8, ptr %13, i64 0
  %15 = load i8, ptr %14, align 1, !tbaa !15
  %16 = zext i8 %15 to i32
  store i32 %16, ptr %8, align 4, !tbaa !16
  call void @llvm.lifetime.start.p0(i64 4, ptr %9) #4
  store i32 0, ptr %9, align 4, !tbaa !16
  %17 = load i32, ptr %8, align 4, !tbaa !16
  %18 = icmp ult i32 %17, 128
  br i1 %18, label %19, label %21

19:                                               ; preds = %3
  %20 = load i32, ptr %8, align 4, !tbaa !16
  store i32 %20, ptr %9, align 4, !tbaa !16
  br label %79

21:                                               ; preds = %3
  call void @llvm.lifetime.start.p0(i64 4, ptr %10) #4
  store i32 0, ptr %10, align 4, !tbaa !16
  br label %22

22:                                               ; preds = %47, %21
  %23 = load i32, ptr %8, align 4, !tbaa !16
  %24 = and i32 %23, 64
  %25 = icmp ne i32 %24, 0
  br i1 %25, label %26, label %50

26:                                               ; preds = %22
  call void @llvm.lifetime.start.p0(i64 4, ptr %11) #4
  %27 = load ptr, ptr %5, align 8, !tbaa !9
  %28 = load i32, ptr %10, align 4, !tbaa !16
  %29 = add nsw i32 %28, 1
  store i32 %29, ptr %10, align 4, !tbaa !16
  %30 = sext i32 %29 to i64
  %31 = getelementptr inbounds i8, ptr %27, i64 %30
  %32 = load i8, ptr %31, align 1, !tbaa !15
  %33 = zext i8 %32 to i32
  store i32 %33, ptr %11, align 4, !tbaa !16
  %34 = load i32, ptr %11, align 4, !tbaa !16
  %35 = and i32 %34, 192
  %36 = icmp eq i32 %35, 128
  br i1 %36, label %38, label %37

37:                                               ; preds = %26
  store ptr null, ptr %4, align 8
  store i32 1, ptr %12, align 4
  br label %44

38:                                               ; preds = %26
  %39 = load i32, ptr %9, align 4, !tbaa !16
  %40 = shl i32 %39, 6
  %41 = load i32, ptr %11, align 4, !tbaa !16
  %42 = and i32 %41, 63
  %43 = or i32 %40, %42
  store i32 %43, ptr %9, align 4, !tbaa !16
  store i32 0, ptr %12, align 4
  br label %44

44:                                               ; preds = %38, %37
  call void @llvm.lifetime.end.p0(i64 4, ptr %11) #4
  %45 = load i32, ptr %12, align 4
  switch i32 %45, label %76 [
    i32 0, label %46
  ]

46:                                               ; preds = %44
  br label %47

47:                                               ; preds = %46
  %48 = load i32, ptr %8, align 4, !tbaa !16
  %49 = shl i32 %48, 1
  store i32 %49, ptr %8, align 4, !tbaa !16
  br label %22

50:                                               ; preds = %22
  %51 = load i32, ptr %8, align 4, !tbaa !16
  %52 = and i32 %51, 127
  %53 = load i32, ptr %10, align 4, !tbaa !16
  %54 = mul nsw i32 %53, 5
  %55 = shl i32 %52, %54
  %56 = load i32, ptr %9, align 4, !tbaa !16
  %57 = or i32 %56, %55
  store i32 %57, ptr %9, align 4, !tbaa !16
  %58 = load i32, ptr %10, align 4, !tbaa !16
  %59 = icmp sgt i32 %58, 5
  br i1 %59, label %70, label %60

60:                                               ; preds = %50
  %61 = load i32, ptr %9, align 4, !tbaa !16
  %62 = icmp ugt i32 %61, 2147483647
  br i1 %62, label %70, label %63

63:                                               ; preds = %60
  %64 = load i32, ptr %9, align 4, !tbaa !16
  %65 = load i32, ptr %10, align 4, !tbaa !16
  %66 = sext i32 %65 to i64
  %67 = getelementptr inbounds [6 x i32], ptr @utf8_decode.limits, i64 0, i64 %66
  %68 = load i32, ptr %67, align 4, !tbaa !16
  %69 = icmp ult i32 %64, %68
  br i1 %69, label %70, label %71

70:                                               ; preds = %63, %60, %50
  store ptr null, ptr %4, align 8
  store i32 1, ptr %12, align 4
  br label %76

71:                                               ; preds = %63
  %72 = load i32, ptr %10, align 4, !tbaa !16
  %73 = load ptr, ptr %5, align 8, !tbaa !9
  %74 = sext i32 %72 to i64
  %75 = getelementptr inbounds i8, ptr %73, i64 %74
  store ptr %75, ptr %5, align 8, !tbaa !9
  store i32 0, ptr %12, align 4
  br label %76

76:                                               ; preds = %71, %70, %44
  call void @llvm.lifetime.end.p0(i64 4, ptr %10) #4
  %77 = load i32, ptr %12, align 4
  switch i32 %77, label %102 [
    i32 0, label %78
  ]

78:                                               ; preds = %76
  br label %79

79:                                               ; preds = %78, %19
  %80 = load i32, ptr %7, align 4, !tbaa !16
  %81 = icmp ne i32 %80, 0
  br i1 %81, label %82, label %93

82:                                               ; preds = %79
  %83 = load i32, ptr %9, align 4, !tbaa !16
  %84 = icmp ugt i32 %83, 1114111
  br i1 %84, label %91, label %85

85:                                               ; preds = %82
  %86 = load i32, ptr %9, align 4, !tbaa !16
  %87 = icmp ule i32 55296, %86
  br i1 %87, label %88, label %92

88:                                               ; preds = %85
  %89 = load i32, ptr %9, align 4, !tbaa !16
  %90 = icmp ule i32 %89, 57343
  br i1 %90, label %91, label %92

91:                                               ; preds = %88, %82
  store ptr null, ptr %4, align 8
  store i32 1, ptr %12, align 4
  br label %102

92:                                               ; preds = %88, %85
  br label %93

93:                                               ; preds = %92, %79
  %94 = load ptr, ptr %6, align 8, !tbaa !18
  %95 = icmp ne ptr %94, null
  br i1 %95, label %96, label %99

96:                                               ; preds = %93
  %97 = load i32, ptr %9, align 4, !tbaa !16
  %98 = load ptr, ptr %6, align 8, !tbaa !18
  store i32 %97, ptr %98, align 4, !tbaa !16
  br label %99

99:                                               ; preds = %96, %93
  %100 = load ptr, ptr %5, align 8, !tbaa !9
  %101 = getelementptr inbounds i8, ptr %100, i64 1
  store ptr %101, ptr %4, align 8
  store i32 1, ptr %12, align 4
  br label %102

102:                                              ; preds = %99, %91, %76
  call void @llvm.lifetime.end.p0(i64 4, ptr %9) #4
  call void @llvm.lifetime.end.p0(i64 4, ptr %8) #4
  %103 = load ptr, ptr %4, align 8
  ret ptr %103
}

; Function Attrs: nounwind uwtable
define internal i64 @u_posrelat(i64 noundef %0, i64 noundef %1) #0 {
  %3 = alloca i64, align 8
  %4 = alloca i64, align 8
  %5 = alloca i64, align 8
  store i64 %0, ptr %4, align 8, !tbaa !11
  store i64 %1, ptr %5, align 8, !tbaa !13
  %6 = load i64, ptr %4, align 8, !tbaa !11
  %7 = icmp sge i64 %6, 0
  br i1 %7, label %8, label %10

8:                                                ; preds = %2
  %9 = load i64, ptr %4, align 8, !tbaa !11
  store i64 %9, ptr %3, align 8
  br label %21

10:                                               ; preds = %2
  %11 = load i64, ptr %4, align 8, !tbaa !11
  %12 = sub i64 0, %11
  %13 = load i64, ptr %5, align 8, !tbaa !13
  %14 = icmp ugt i64 %12, %13
  br i1 %14, label %15, label %16

15:                                               ; preds = %10
  store i64 0, ptr %3, align 8
  br label %21

16:                                               ; preds = %10
  %17 = load i64, ptr %5, align 8, !tbaa !13
  %18 = load i64, ptr %4, align 8, !tbaa !11
  %19 = add nsw i64 %17, %18
  %20 = add nsw i64 %19, 1
  store i64 %20, ptr %3, align 8
  br label %21

21:                                               ; preds = %16, %15, %8
  %22 = load i64, ptr %3, align 8
  ret i64 %22
}

; Function Attrs: nounwind uwtable
define internal i32 @utflen(ptr noundef %0) #0 {
  %2 = alloca i32, align 4
  %3 = alloca ptr, align 8
  %4 = alloca i64, align 8
  %5 = alloca i64, align 8
  %6 = alloca ptr, align 8
  %7 = alloca i64, align 8
  %8 = alloca i64, align 8
  %9 = alloca i32, align 4
  %10 = alloca ptr, align 8
  %11 = alloca i32, align 4
  store ptr %0, ptr %3, align 8, !tbaa !4
  call void @llvm.lifetime.start.p0(i64 8, ptr %4) #4
  store i64 0, ptr %4, align 8, !tbaa !11
  call void @llvm.lifetime.start.p0(i64 8, ptr %5) #4
  call void @llvm.lifetime.start.p0(i64 8, ptr %6) #4
  %12 = load ptr, ptr %3, align 8, !tbaa !4
  %13 = call ptr @luaL_checklstring(ptr noundef %12, i32 noundef 1, ptr noundef %5)
  store ptr %13, ptr %6, align 8, !tbaa !9
  call void @llvm.lifetime.start.p0(i64 8, ptr %7) #4
  %14 = load ptr, ptr %3, align 8, !tbaa !4
  %15 = call i64 @luaL_optinteger(ptr noundef %14, i32 noundef 2, i64 noundef 1)
  %16 = load i64, ptr %5, align 8, !tbaa !13
  %17 = call i64 @u_posrelat(i64 noundef %15, i64 noundef %16)
  store i64 %17, ptr %7, align 8, !tbaa !11
  call void @llvm.lifetime.start.p0(i64 8, ptr %8) #4
  %18 = load ptr, ptr %3, align 8, !tbaa !4
  %19 = call i64 @luaL_optinteger(ptr noundef %18, i32 noundef 3, i64 noundef -1)
  %20 = load i64, ptr %5, align 8, !tbaa !13
  %21 = call i64 @u_posrelat(i64 noundef %19, i64 noundef %20)
  store i64 %21, ptr %8, align 8, !tbaa !11
  call void @llvm.lifetime.start.p0(i64 4, ptr %9) #4
  %22 = load ptr, ptr %3, align 8, !tbaa !4
  %23 = call i32 @lua_toboolean(ptr noundef %22, i32 noundef 4)
  store i32 %23, ptr %9, align 4, !tbaa !16
  %24 = load i64, ptr %7, align 8, !tbaa !11
  %25 = icmp sle i64 1, %24
  br i1 %25, label %26, label %31

26:                                               ; preds = %1
  %27 = load i64, ptr %7, align 8, !tbaa !11
  %28 = add nsw i64 %27, -1
  store i64 %28, ptr %7, align 8, !tbaa !11
  %29 = load i64, ptr %5, align 8, !tbaa !13
  %30 = icmp sle i64 %28, %29
  br label %31

31:                                               ; preds = %26, %1
  %32 = phi i1 [ false, %1 ], [ %30, %26 ]
  %33 = zext i1 %32 to i32
  %34 = icmp ne i32 %33, 0
  %35 = zext i1 %34 to i32
  %36 = sext i32 %35 to i64
  %37 = call i64 @llvm.expect.i64(i64 %36, i64 1)
  %38 = icmp ne i64 %37, 0
  br i1 %38, label %42, label %39

39:                                               ; preds = %31
  %40 = load ptr, ptr %3, align 8, !tbaa !4
  %41 = call i32 @luaL_argerror(ptr noundef %40, i32 noundef 2, ptr noundef @.str.14)
  br label %42

42:                                               ; preds = %39, %31
  %43 = load i64, ptr %8, align 8, !tbaa !11
  %44 = add nsw i64 %43, -1
  store i64 %44, ptr %8, align 8, !tbaa !11
  %45 = load i64, ptr %5, align 8, !tbaa !13
  %46 = icmp slt i64 %44, %45
  %47 = zext i1 %46 to i32
  %48 = icmp ne i32 %47, 0
  %49 = zext i1 %48 to i32
  %50 = sext i32 %49 to i64
  %51 = call i64 @llvm.expect.i64(i64 %50, i64 1)
  %52 = icmp ne i64 %51, 0
  br i1 %52, label %56, label %53

53:                                               ; preds = %42
  %54 = load ptr, ptr %3, align 8, !tbaa !4
  %55 = call i32 @luaL_argerror(ptr noundef %54, i32 noundef 3, ptr noundef @.str.15)
  br label %56

56:                                               ; preds = %53, %42
  br label %57

57:                                               ; preds = %87, %56
  %58 = load i64, ptr %7, align 8, !tbaa !11
  %59 = load i64, ptr %8, align 8, !tbaa !11
  %60 = icmp sle i64 %58, %59
  br i1 %60, label %61, label %88

61:                                               ; preds = %57
  call void @llvm.lifetime.start.p0(i64 8, ptr %10) #4
  %62 = load ptr, ptr %6, align 8, !tbaa !9
  %63 = load i64, ptr %7, align 8, !tbaa !11
  %64 = getelementptr inbounds i8, ptr %62, i64 %63
  %65 = load i32, ptr %9, align 4, !tbaa !16
  %66 = icmp ne i32 %65, 0
  %67 = xor i1 %66, true
  %68 = zext i1 %67 to i32
  %69 = call ptr @utf8_decode(ptr noundef %64, ptr noundef null, i32 noundef %68)
  store ptr %69, ptr %10, align 8, !tbaa !9
  %70 = load ptr, ptr %10, align 8, !tbaa !9
  %71 = icmp eq ptr %70, null
  br i1 %71, label %72, label %77

72:                                               ; preds = %61
  %73 = load ptr, ptr %3, align 8, !tbaa !4
  call void @lua_pushnil(ptr noundef %73)
  %74 = load ptr, ptr %3, align 8, !tbaa !4
  %75 = load i64, ptr %7, align 8, !tbaa !11
  %76 = add nsw i64 %75, 1
  call void @lua_pushinteger(ptr noundef %74, i64 noundef %76)
  store i32 2, ptr %2, align 4
  store i32 1, ptr %11, align 4
  br label %85

77:                                               ; preds = %61
  %78 = load ptr, ptr %10, align 8, !tbaa !9
  %79 = load ptr, ptr %6, align 8, !tbaa !9
  %80 = ptrtoint ptr %78 to i64
  %81 = ptrtoint ptr %79 to i64
  %82 = sub i64 %80, %81
  store i64 %82, ptr %7, align 8, !tbaa !11
  %83 = load i64, ptr %4, align 8, !tbaa !11
  %84 = add nsw i64 %83, 1
  store i64 %84, ptr %4, align 8, !tbaa !11
  store i32 0, ptr %11, align 4
  br label %85

85:                                               ; preds = %77, %72
  call void @llvm.lifetime.end.p0(i64 8, ptr %10) #4
  %86 = load i32, ptr %11, align 4
  switch i32 %86, label %91 [
    i32 0, label %87
  ]

87:                                               ; preds = %85
  br label %57

88:                                               ; preds = %57
  %89 = load ptr, ptr %3, align 8, !tbaa !4
  %90 = load i64, ptr %4, align 8, !tbaa !11
  call void @lua_pushinteger(ptr noundef %89, i64 noundef %90)
  store i32 1, ptr %2, align 4
  store i32 1, ptr %11, align 4
  br label %91

91:                                               ; preds = %88, %85
  call void @llvm.lifetime.end.p0(i64 4, ptr %9) #4
  call void @llvm.lifetime.end.p0(i64 8, ptr %8) #4
  call void @llvm.lifetime.end.p0(i64 8, ptr %7) #4
  call void @llvm.lifetime.end.p0(i64 8, ptr %6) #4
  call void @llvm.lifetime.end.p0(i64 8, ptr %5) #4
  call void @llvm.lifetime.end.p0(i64 8, ptr %4) #4
  %92 = load i32, ptr %2, align 4
  ret i32 %92
}