; Function Attrs: nounwind uwtable
define internal range(i32 1, 3) i32 @utflen(ptr noundef %0) #0 {
  %2 = alloca i64, align 8
  call void @llvm.lifetime.start.p0(i64 8, ptr nonnull %2) #3
  %3 = call ptr @luaL_checklstring(ptr noundef %0, i32 noundef 1, ptr noundef nonnull %2) #3
  %4 = call i64 @luaL_optinteger(ptr noundef %0, i32 noundef 2, i64 noundef 1) #3
  %5 = load i64, ptr %2, align 8, !tbaa !4
  %6 = icmp sgt i64 %4, -1
  br i1 %6, label %u_posrelat.exit, label %7

7:                                                ; preds = %1
  %8 = sub i64 0, %4
  %9 = icmp ult i64 %5, %8
  br i1 %9, label %u_posrelat.exit, label %10

10:                                               ; preds = %7
  %11 = add nsw i64 %4, 1
  %12 = add i64 %11, %5
  br label %u_posrelat.exit

u_posrelat.exit:                                  ; preds = %1, %7, %10
  %.0.i = phi i64 [ %12, %10 ], [ %4, %1 ], [ 0, %7 ]
  %13 = call i64 @luaL_optinteger(ptr noundef %0, i32 noundef 3, i64 noundef -1) #3
  %14 = load i64, ptr %2, align 8, !tbaa !4
  %15 = icmp sgt i64 %13, -1
  br i1 %15, label %u_posrelat.exit37, label %16

16:                                               ; preds = %u_posrelat.exit
  %17 = sub i64 0, %13
  %18 = icmp ult i64 %14, %17
  br i1 %18, label %u_posrelat.exit37, label %19

19:                                               ; preds = %16
  %20 = add nsw i64 %13, 1
  %21 = add i64 %20, %14
  br label %u_posrelat.exit37

u_posrelat.exit37:                                ; preds = %u_posrelat.exit, %16, %19
  %.0.i36 = phi i64 [ %21, %19 ], [ %13, %u_posrelat.exit ], [ 0, %16 ]
  %22 = call i32 @lua_toboolean(ptr noundef %0, i32 noundef 4) #3
  %23 = icmp sgt i64 %.0.i, 0
  %24 = add nsw i64 %.0.i, -1
  %25 = load i64, ptr %2, align 8
  %26 = icmp sle i64 %24, %25
  %.027 = select i1 %23, i64 %24, i64 %.0.i
  %27 = select i1 %23, i1 %26, i1 false
  br i1 %27, label %30, label %28, !prof !10

28:                                               ; preds = %u_posrelat.exit37
  %29 = call i32 @luaL_argerror(ptr noundef %0, i32 noundef 2, ptr noundef nonnull @.str.14) #3
  %.pre = load i64, ptr %2, align 8, !tbaa !4
  br label %30

30:                                               ; preds = %28, %u_posrelat.exit37
  %31 = phi i64 [ %.pre, %28 ], [ %25, %u_posrelat.exit37 ]
  %.not = icmp sgt i64 %.0.i36, %31
  br i1 %.not, label %32, label %34, !prof !11

32:                                               ; preds = %30
  %33 = call i32 @luaL_argerror(ptr noundef %0, i32 noundef 3, ptr noundef nonnull @.str.15) #3
  br label %34

34:                                               ; preds = %32, %30
  %.not33.not53 = icmp slt i64 %.027, %.0.i36
  br i1 %.not33.not53, label %.lr.ph, label %._crit_edge

.lr.ph:                                           ; preds = %34
  %.fr = freeze i32 %22
  %.not34.not = icmp eq i32 %.fr, 0
  %35 = ptrtoint ptr %3 to i64
  br i1 %.not34.not, label %.lr.ph.split.us, label %.lr.ph.split

.lr.ph.split.us:                                  ; preds = %.lr.ph, %66
  %.02555.us = phi i64 [ %70, %66 ], [ 0, %.lr.ph ]
  %.12854.us = phi i64 [ %69, %66 ], [ %.027, %.lr.ph ]
  %36 = getelementptr inbounds i8, ptr %3, i64 %.12854.us
  %37 = load i8, ptr %36, align 1, !tbaa !9
  %38 = zext i8 %37 to i32
  %39 = icmp sgt i8 %37, -1
  br i1 %39, label %63, label %.preheader.i.us

.preheader.i.us:                                  ; preds = %.lr.ph.split.us
  %40 = and i32 %38, 64
  %.not58.i.us = icmp eq i32 %40, 0
  br i1 %.not58.i.us, label %._crit_edge.i.us, label %.lr.ph.i.us

.lr.ph.i.us:                                      ; preds = %.preheader.i.us, %46
  %indvars.iv.i.us = phi i64 [ %indvars.iv.next.i.us, %46 ], [ 0, %.preheader.i.us ]
  %.13760.i.us = phi i32 [ %49, %46 ], [ 0, %.preheader.i.us ]
  %.04059.i.us = phi i32 [ %50, %46 ], [ %38, %.preheader.i.us ]
  %indvars.iv.next.i.us = add nuw nsw i64 %indvars.iv.i.us, 1
  %41 = getelementptr inbounds nuw i8, ptr %36, i64 %indvars.iv.next.i.us
  %42 = load i8, ptr %41, align 1, !tbaa !9
  %43 = zext i8 %42 to i32
  %44 = and i32 %43, 192
  %45 = icmp eq i32 %44, 128
  br i1 %45, label %46, label %.thread

46:                                               ; preds = %.lr.ph.i.us
  %47 = shl i32 %.13760.i.us, 6
  %48 = and i32 %43, 63
  %49 = or disjoint i32 %48, %47
  %50 = shl i32 %.04059.i.us, 1
  %51 = and i32 %.04059.i.us, 32
  %.not.i.us = icmp eq i32 %51, 0
  br i1 %.not.i.us, label %._crit_edge.loopexit.i.us, label %.lr.ph.i.us

._crit_edge.loopexit.i.us:                        ; preds = %46
  %52 = trunc nuw nsw i64 %indvars.iv.next.i.us to i32
  br label %._crit_edge.i.us

._crit_edge.i.us:                                 ; preds = %._crit_edge.loopexit.i.us, %.preheader.i.us
  %.040.lcssa.i.us = phi i32 [ %38, %.preheader.i.us ], [ %50, %._crit_edge.loopexit.i.us ]
  %.137.lcssa.i.us = phi i32 [ 0, %.preheader.i.us ], [ %49, %._crit_edge.loopexit.i.us ]
  %.035.lcssa.i.us = phi i32 [ 0, %.preheader.i.us ], [ %52, %._crit_edge.loopexit.i.us ]
  %53 = and i32 %.040.lcssa.i.us, 63
  %54 = mul nuw nsw i32 %.035.lcssa.i.us, 5
  %55 = shl i32 %53, %54
  %56 = or i32 %55, %.137.lcssa.i.us
  %57 = icmp samesign ugt i32 %.035.lcssa.i.us, 5
  %58 = icmp slt i32 %56, 0
  %or.cond.i.us = select i1 %57, i1 true, i1 %58
  br i1 %or.cond.i.us, label %.thread, label %59

59:                                               ; preds = %._crit_edge.i.us
  %60 = zext nneg i32 %.035.lcssa.i.us to i64
  %61 = getelementptr inbounds nuw [6 x i32], ptr @utf8_decode.limits, i64 0, i64 %60
  %62 = load i32, ptr %61, align 4, !tbaa !12
  %.not54.i.us = icmp ult i32 %56, %62
  %spec.select.idx.i.us = select i1 %.not54.i.us, i64 0, i64 %60
  %spec.select.i.us = getelementptr inbounds nuw i8, ptr %36, i64 %spec.select.idx.i.us
  br i1 %.not54.i.us, label %.thread, label %63

63:                                               ; preds = %59, %.lr.ph.split.us
  %.041.i.us = phi ptr [ %spec.select.i.us, %59 ], [ %36, %.lr.ph.split.us ]
  %.036.i.us = phi i32 [ %56, %59 ], [ %38, %.lr.ph.split.us ]
  %64 = icmp samesign ugt i32 %.036.i.us, 1114111
  %65 = and i32 %.036.i.us, 2095104
  %or.cond4.i.us = icmp eq i32 %65, 55296
  %or.cond49.i.us = or i1 %64, %or.cond4.i.us
  br i1 %or.cond49.i.us, label %.thread, label %66

66:                                               ; preds = %63
  %67 = getelementptr inbounds nuw i8, ptr %.041.i.us, i64 1
  %68 = ptrtoint ptr %67 to i64
  %69 = sub i64 %68, %35
  %70 = add nuw nsw i64 %.02555.us, 1
  %.not33.not.us = icmp slt i64 %69, %.0.i36
  br i1 %.not33.not.us, label %.lr.ph.split.us, label %._crit_edge

.lr.ph.split:                                     ; preds = %.lr.ph, %98
  %.02555 = phi i64 [ %102, %98 ], [ 0, %.lr.ph ]
  %.12854 = phi i64 [ %101, %98 ], [ %.027, %.lr.ph ]
  %71 = getelementptr inbounds i8, ptr %3, i64 %.12854
  %72 = load i8, ptr %71, align 1, !tbaa !9
  %73 = icmp sgt i8 %72, -1
  br i1 %73, label %98, label %.preheader.i

.preheader.i:                                     ; preds = %.lr.ph.split
  %74 = zext i8 %72 to i32
  %75 = and i32 %74, 64
  %.not58.i = icmp eq i32 %75, 0
  br i1 %.not58.i, label %._crit_edge.i, label %.lr.ph.i

.lr.ph.i:                                         ; preds = %.preheader.i, %81
  %indvars.iv.i = phi i64 [ %indvars.iv.next.i, %81 ], [ 0, %.preheader.i ]
  %.13760.i = phi i32 [ %84, %81 ], [ 0, %.preheader.i ]
  %.04059.i = phi i32 [ %85, %81 ], [ %74, %.preheader.i ]
  %indvars.iv.next.i = add nuw nsw i64 %indvars.iv.i, 1
  %76 = getelementptr inbounds nuw i8, ptr %71, i64 %indvars.iv.next.i
  %77 = load i8, ptr %76, align 1, !tbaa !9
  %78 = zext i8 %77 to i32
  %79 = and i32 %78, 192
  %80 = icmp eq i32 %79, 128
  br i1 %80, label %81, label %.thread

81:                                               ; preds = %.lr.ph.i
  %82 = shl i32 %.13760.i, 6
  %83 = and i32 %78, 63
  %84 = or disjoint i32 %83, %82
  %85 = shl i32 %.04059.i, 1
  %86 = and i32 %.04059.i, 32
  %.not.i = icmp eq i32 %86, 0
  br i1 %.not.i, label %._crit_edge.loopexit.i, label %.lr.ph.i

._crit_edge.loopexit.i:                           ; preds = %81
  %87 = trunc nuw nsw i64 %indvars.iv.next.i to i32
  br label %._crit_edge.i

._crit_edge.i:                                    ; preds = %._crit_edge.loopexit.i, %.preheader.i
  %.040.lcssa.i = phi i32 [ %74, %.preheader.i ], [ %85, %._crit_edge.loopexit.i ]
  %.137.lcssa.i = phi i32 [ 0, %.preheader.i ], [ %84, %._crit_edge.loopexit.i ]
  %.035.lcssa.i = phi i32 [ 0, %.preheader.i ], [ %87, %._crit_edge.loopexit.i ]
  %88 = and i32 %.040.lcssa.i, 63
  %89 = mul nuw nsw i32 %.035.lcssa.i, 5
  %90 = shl i32 %88, %89
  %91 = or i32 %90, %.137.lcssa.i
  %92 = icmp samesign ugt i32 %.035.lcssa.i, 5
  %93 = icmp slt i32 %91, 0
  %or.cond.i = select i1 %92, i1 true, i1 %93
  br i1 %or.cond.i, label %.thread, label %94

94:                                               ; preds = %._crit_edge.i
  %95 = zext nneg i32 %.035.lcssa.i to i64
  %96 = getelementptr inbounds nuw [6 x i32], ptr @utf8_decode.limits, i64 0, i64 %95
  %97 = load i32, ptr %96, align 4, !tbaa !12
  %.not54.i = icmp ult i32 %91, %97
  %spec.select.idx.i = select i1 %.not54.i, i64 0, i64 %95
  %spec.select.i = getelementptr inbounds nuw i8, ptr %71, i64 %spec.select.idx.i
  br i1 %.not54.i, label %.thread, label %98

98:                                               ; preds = %94, %.lr.ph.split
  %.041.i = phi ptr [ %spec.select.i, %94 ], [ %71, %.lr.ph.split ]
  %99 = getelementptr inbounds nuw i8, ptr %.041.i, i64 1
  %100 = ptrtoint ptr %99 to i64
  %101 = sub i64 %100, %35
  %102 = add nuw nsw i64 %.02555, 1
  %.not33.not = icmp slt i64 %101, %.0.i36
  br i1 %.not33.not, label %.lr.ph.split, label %._crit_edge

.thread:                                          ; preds = %94, %._crit_edge.i, %.lr.ph.i, %63, %59, %._crit_edge.i.us, %.lr.ph.i.us
  %.12852 = phi i64 [ %.12854.us, %.lr.ph.i.us ], [ %.12854.us, %._crit_edge.i.us ], [ %.12854.us, %59 ], [ %.12854.us, %63 ], [ %.12854, %.lr.ph.i ], [ %.12854, %._crit_edge.i ], [ %.12854, %94 ]
  call void @lua_pushnil(ptr noundef %0) #3
  %103 = add nsw i64 %.12852, 1
  br label %._crit_edge

._crit_edge:                                      ; preds = %98, %66, %34, %.thread
  %.sink = phi i64 [ %103, %.thread ], [ 0, %34 ], [ %70, %66 ], [ %102, %98 ]
  %.2 = phi i32 [ 2, %.thread ], [ 1, %34 ], [ 1, %66 ], [ 1, %98 ]
  call void @lua_pushinteger(ptr noundef %0, i64 noundef %.sink) #3
  call void @llvm.lifetime.end.p0(i64 8, ptr nonnull %2) #3
  ret i32 %.2
}